target datalayout = "e-m:e-p270:32:32-p271:32:32-p272:64:64-i64:64-i128:128-f80:128-n8:16:32:64-S128"
target triple = "x86_64-pc-linux-gnu"

%"class.ncnn::Mat" = type { ptr, ptr, i64, i32, ptr, i32, i32, i32, i32, i32, i64 }

@.str.19 = private unnamed_addr constant [8 x i8] c" -%d=%d\00", align 1
@.str.20 = private unnamed_addr constant [4 x i8] c",%d\00", align 1

; Function Attrs: alwaysinline mustprogress nounwind uwtable
define linkonce_odr dso_local noundef ptr @_ZNK4ncnn3MatcvPKT_IiEEv(ptr noundef nonnull align 8 dereferenceable(72) %0) #9 comdat align 2 {
  %2 = alloca ptr, align 8
  store ptr %0, ptr %2, align 8, !tbaa !100
  %3 = load ptr, ptr %2, align 8
  %4 = getelementptr inbounds nuw %"class.ncnn::Mat", ptr %3, i32 0, i32 0
  %5 = load ptr, ptr %4, align 8, !tbaa !101
  ret ptr %5
}

; Function Attrs: mustprogress uwtable
define dso_local noundef i32 @_ZN11ModelWriter23fprintf_param_int_arrayEiRKN4ncnn3MatEP8_IO_FILE(ptr noundef nonnull align 8 dereferenceable(116) %0, i32 noundef %1, ptr noundef nonnull align 8 dereferenceable(72) %2, ptr noundef %3) #3 align 2 {
  %5 = alloca ptr, align 8
  %6 = alloca i32, align 4
  %7 = alloca ptr, align 8
  %8 = alloca ptr, align 8
  %9 = alloca i32, align 4
  %10 = alloca ptr, align 8
  %11 = alloca i32, align 4
  store ptr %0, ptr %5, align 8, !tbaa !5
  store i32 %1, ptr %6, align 4, !tbaa !50
  store ptr %2, ptr %7, align 8, !tbaa !100
  store ptr %3, ptr %8, align 8, !tbaa !14
  call void @llvm.lifetime.start.p0(i64 4, ptr %9) #19
  %12 = load ptr, ptr %7, align 8, !tbaa !100
  %13 = getelementptr inbounds nuw %"class.ncnn::Mat", ptr %12, i32 0, i32 6
  %14 = load i32, ptr %13, align 4, !tbaa !107
  store i32 %14, ptr %9, align 4, !tbaa !50
  call void @llvm.lifetime.start.p0(i64 8, ptr %10) #19
  %15 = load ptr, ptr %7, align 8, !tbaa !100
  %16 = call noundef ptr @_ZNK4ncnn3MatcvPKT_IiEEv(ptr noundef nonnull align 8 dereferenceable(72) %15)
  store ptr %16, ptr %10, align 8, !tbaa !190
  %17 = load ptr, ptr %8, align 8, !tbaa !14
  %18 = load i32, ptr %6, align 4, !tbaa !50
  %19 = add nsw i32 23300, %18
  %20 = load i32, ptr %9, align 4, !tbaa !50
  %21 = call i32 (ptr, ptr, ...) @fprintf(ptr noundef %17, ptr noundef @.str.19, i32 noundef %19, i32 noundef %20) #19
  call void @llvm.lifetime.start.p0(i64 4, ptr %11) #19
  store i32 0, ptr %11, align 4, !tbaa !50
  br label %22

22:                                               ; preds = %35, %4
  %23 = load i32, ptr %11, align 4, !tbaa !50
  %24 = load i32, ptr %9, align 4, !tbaa !50
  %25 = icmp slt i32 %23, %24
  br i1 %25, label %27, label %26

26:                                               ; preds = %22
  call void @llvm.lifetime.end.p0(i64 4, ptr %11) #19
  br label %38

27:                                               ; preds = %22
  %28 = load ptr, ptr %8, align 8, !tbaa !14
  %29 = load ptr, ptr %10, align 8, !tbaa !190
  %30 = load i32, ptr %11, align 4, !tbaa !50
  %31 = sext i32 %30 to i64
  %32 = getelementptr inbounds i32, ptr %29, i64 %31
  %33 = load i32, ptr %32, align 4, !tbaa !50
  %34 = call i32 (ptr, ptr, ...) @fprintf(ptr noundef %28, ptr noundef @.str.20, i32 noundef %33) #19
  br label %35

35:                                               ; preds = %27
  %36 = load i32, ptr %11, align 4, !tbaa !50
  %37 = add nsw i32 %36, 1
  store i32 %37, ptr %11, align 4, !tbaa !50
  br label %22, !llvm.loop !252

38:                                               ; preds = %26
  call void @llvm.lifetime.end.p0(i64 8, ptr %10) #19
  call void @llvm.lifetime.end.p0(i64 4, ptr %9) #19
  ret i32 0
}