; Function Attrs: mustprogress nofree nounwind uwtable
define dso_local noundef i32 @_ZN11ModelWriter23fprintf_param_int_arrayEiRKN4ncnn3MatEP8_IO_FILE(ptr nonnull readnone align 8 captures(none) %0, i32 noundef %1, ptr noundef nonnull readonly align 8 captures(none) dereferenceable(72) %2, ptr noundef captures(none) %3) local_unnamed_addr #15 align 2 {
  %5 = getelementptr inbounds nuw i8, ptr %2, i64 44
  %6 = load i32, ptr %5, align 4, !tbaa !93
  %7 = load ptr, ptr %2, align 8, !tbaa !76
  %8 = add nsw i32 %1, 23300
  %9 = tail call i32 (ptr, ptr, ...) @fprintf(ptr noundef %3, ptr noundef nonnull @.str.19, i32 noundef %8, i32 noundef %6) #24
  %10 = icmp sgt i32 %6, 0
  br i1 %10, label %.lr.ph.preheader, label %._crit_edge

.lr.ph.preheader:                                 ; preds = %4
  %wide.trip.count = zext nneg i32 %6 to i64
  br label %.lr.ph

._crit_edge:                                      ; preds = %.lr.ph, %4
  ret i32 0

.lr.ph:                                           ; preds = %.lr.ph.preheader, %.lr.ph
  %indvars.iv = phi i64 [ 0, %.lr.ph.preheader ], [ %indvars.iv.next, %.lr.ph ]
  %11 = getelementptr inbounds nuw i32, ptr %7, i64 %indvars.iv
  %12 = load i32, ptr %11, align 4, !tbaa !78
  %13 = tail call i32 (ptr, ptr, ...) @fprintf(ptr noundef %3, ptr noundef nonnull @.str.20, i32 noundef %12) #24
  %indvars.iv.next = add nuw nsw i64 %indvars.iv, 1
  %exitcond.not = icmp eq i64 %indvars.iv.next, %wide.trip.count
  br i1 %exitcond.not, label %._crit_edge, label %.lr.ph, !llvm.loop !140
}